; Function Attrs: nounwind uwtable
define void @Res_SimPrintOutPatterns(ptr noundef readonly captures(none) %0, ptr noundef readonly captures(none) %1) local_unnamed_addr #4 {
  %3 = getelementptr i8, ptr %1, i64 48
  %.val10 = load ptr, ptr %3, align 8, !tbaa !53
  %4 = getelementptr i8, ptr %.val10, i64 4
  %.val.val11 = load i32, ptr %4, align 4, !tbaa !22
  %5 = icmp sgt i32 %.val.val11, 0
  br i1 %5, label %.lr.ph, label %.critedge

.lr.ph:                                           ; preds = %2
  %6 = getelementptr inbounds nuw i8, ptr %0, i64 72
  %7 = getelementptr inbounds nuw i8, ptr %0, i64 44
  br label %8

8:                                                ; preds = %.lr.ph, %8
  %indvars.iv = phi i64 [ 0, %.lr.ph ], [ %indvars.iv.next, %8 ]
  %9 = load ptr, ptr %6, align 8, !tbaa !29
  %10 = getelementptr i8, ptr %9, i64 8
  %.val8 = load ptr, ptr %10, align 8, !tbaa !25
  %11 = getelementptr inbounds nuw ptr, ptr %.val8, i64 %indvars.iv
  %12 = load ptr, ptr %11, align 8, !tbaa !19
  %13 = load ptr, ptr @stdout, align 8, !tbaa !104
  %14 = load i32, ptr %7, align 4, !tbaa !18
  tail call void @Extra_PrintBinary(ptr noundef %13, ptr noundef %12, i32 noundef %14) #15
  %putchar = tail call i32 @putchar(i32 10)
  %indvars.iv.next = add nuw nsw i64 %indvars.iv, 1
  %.val = load ptr, ptr %3, align 8, !tbaa !53
  %15 = getelementptr i8, ptr %.val, i64 4
  %.val.val = load i32, ptr %15, align 4, !tbaa !22
  %16 = sext i32 %.val.val to i64
  %17 = icmp slt i64 %indvars.iv.next, %16
  br i1 %17, label %8, label %.critedge, !llvm.loop !106

.critedge:                                        ; preds = %8, %2
  ret void
}